target datalayout = "e-m:e-p270:32:32-p271:32:32-p272:64:64-i64:64-i128:128-f80:128-n8:16:32:64-S128"
target triple = "x86_64-pc-linux-gnu"

%"class.llvm::SmallVectorBase" = type { ptr, i32, i32 }
%struct.OperationIndices.447 = type { i32, i64, i64 }
%"struct.std::less" = type { i8 }
%"struct.std::less.392" = type { i8 }

; Function Attrs: mustprogress nounwind uwtable
define linkonce_odr hidden noundef zeroext i1 @_ZNKSt4lessIPKvEclES1_S1_(ptr noundef nonnull align 1 dereferenceable(1) %0, ptr noundef %1, ptr noundef %2) #1 comdat align 2 {
  %4 = alloca ptr, align 8
  %5 = alloca ptr, align 8
  %6 = alloca ptr, align 8
  store ptr %0, ptr %4, align 8
  store ptr %1, ptr %5, align 8
  store ptr %2, ptr %6, align 8
  %7 = load ptr, ptr %5, align 8
  %8 = ptrtoint ptr %7 to i64
  %9 = load ptr, ptr %6, align 8
  %10 = ptrtoint ptr %9 to i64
  %11 = icmp ult i64 %8, %10
  ret i1 %11
}

; Function Attrs: mustprogress nounwind uwtable
define internal noundef ptr @_ZNK4llvm25SmallVectorTemplateCommonIZL22costAndCollectOperandsINS_12SCEVUDivExprEENS_15InstructionCostERKNS_11SCEVOperandERKNS_19TargetTransformInfoENS7_14TargetCostKindERNS_15SmallVectorImplIS4_EEE16OperationIndicesvE10getFirstElEv(ptr noundef nonnull align 8 dereferenceable(16) %0) #1 align 2 {
  %2 = alloca ptr, align 8
  store ptr %0, ptr %2, align 8
  %3 = load ptr, ptr %2, align 8
  %4 = getelementptr inbounds i8, ptr %3, i64 16
  ret ptr %4
}

; Function Attrs: mustprogress nounwind uwtable
define linkonce_odr hidden noundef zeroext i1 @_ZNKSt4lessIvEclIKvS2_EEbPT_PT0_(ptr noundef nonnull align 1 dereferenceable(1) %0, ptr noundef %1, ptr noundef %2) #1 comdat align 2 {
  %4 = alloca ptr, align 8
  %5 = alloca ptr, align 8
  %6 = alloca ptr, align 8
  %7 = alloca %"struct.std::less.392", align 1
  store ptr %0, ptr %4, align 8
  store ptr %1, ptr %5, align 8
  store ptr %2, ptr %6, align 8
  %8 = load ptr, ptr %5, align 8
  %9 = load ptr, ptr %6, align 8
  %10 = call noundef zeroext i1 @_ZNKSt4lessIPKvEclES1_S1_(ptr noundef nonnull align 1 dereferenceable(1) %7, ptr noundef %8, ptr noundef %9) #2
  ret i1 %10
}

; Function Attrs: mustprogress nounwind uwtable
define internal void @_ZN4llvm25SmallVectorTemplateCommonIZL22costAndCollectOperandsINS_12SCEVUDivExprEENS_15InstructionCostERKNS_11SCEVOperandERKNS_19TargetTransformInfoENS7_14TargetCostKindERNS_15SmallVectorImplIS4_EEE16OperationIndicesvE8grow_podEmm(ptr noundef nonnull align 8 dereferenceable(16) %0, i64 noundef %1, i64 noundef %2) #1 align 2 {
  %4 = alloca ptr, align 8
  %5 = alloca i64, align 8
  %6 = alloca i64, align 8
  store ptr %0, ptr %4, align 8
  store i64 %1, ptr %5, align 8
  store i64 %2, ptr %6, align 8
  %7 = load ptr, ptr %4, align 8
  %8 = call noundef ptr @_ZNK4llvm25SmallVectorTemplateCommonIZL22costAndCollectOperandsINS_12SCEVUDivExprEENS_15InstructionCostERKNS_11SCEVOperandERKNS_19TargetTransformInfoENS7_14TargetCostKindERNS_15SmallVectorImplIS4_EEE16OperationIndicesvE10getFirstElEv(ptr noundef nonnull align 8 dereferenceable(16) %7)
  %9 = load i64, ptr %5, align 8
  %10 = load i64, ptr %6, align 8
  call void @_ZN4llvm15SmallVectorBaseIjE8grow_podEPvmm(ptr noundef nonnull align 8 dereferenceable(16) %7, ptr noundef %8, i64 noundef %9, i64 noundef %10)
  ret void
}

; Function Attrs: mustprogress nounwind uwtable
define internal noundef zeroext i1 @_ZNK4llvm25SmallVectorTemplateCommonIZL22costAndCollectOperandsINS_12SCEVUDivExprEENS_15InstructionCostERKNS_11SCEVOperandERKNS_19TargetTransformInfoENS7_14TargetCostKindERNS_15SmallVectorImplIS4_EEE16OperationIndicesvE18isReferenceToRangeEPKvSH_SH_(ptr noundef nonnull align 8 dereferenceable(16) %0, ptr noundef %1, ptr noundef %2, ptr noundef %3) #1 align 2 {
  %5 = alloca ptr, align 8
  %6 = alloca ptr, align 8
  %7 = alloca ptr, align 8
  %8 = alloca ptr, align 8
  %9 = alloca %"struct.std::less", align 1
  store ptr %0, ptr %5, align 8
  store ptr %1, ptr %6, align 8
  store ptr %2, ptr %7, align 8
  store ptr %3, ptr %8, align 8
  %10 = load ptr, ptr %6, align 8
  %11 = load ptr, ptr %7, align 8
  %12 = call noundef zeroext i1 @_ZNKSt4lessIvEclIKvS2_EEbPT_PT0_(ptr noundef nonnull align 1 dereferenceable(1) %9, ptr noundef %10, ptr noundef %11) #2
  br i1 %12, label %17, label %13

13:                                               ; preds = %4
  %14 = load ptr, ptr %6, align 8
  %15 = load ptr, ptr %8, align 8
  %16 = call noundef zeroext i1 @_ZNKSt4lessIvEclIKvS2_EEbPT_PT0_(ptr noundef nonnull align 1 dereferenceable(1) %9, ptr noundef %14, ptr noundef %15) #2
  br label %17

17:                                               ; preds = %13, %4
  %18 = phi i1 [ false, %4 ], [ %16, %13 ]
  ret i1 %18
}

; Function Attrs: mustprogress nounwind uwtable
define internal noundef ptr @_ZNK4llvm25SmallVectorTemplateCommonIZL22costAndCollectOperandsINS_12SCEVUDivExprEENS_15InstructionCostERKNS_11SCEVOperandERKNS_19TargetTransformInfoENS7_14TargetCostKindERNS_15SmallVectorImplIS4_EEE16OperationIndicesvE3endEv(ptr noundef nonnull align 8 dereferenceable(16) %0) #1 align 2 {
  %2 = alloca ptr, align 8
  store ptr %0, ptr %2, align 8
  %3 = load ptr, ptr %2, align 8
  %4 = call noundef ptr @_ZNK4llvm25SmallVectorTemplateCommonIZL22costAndCollectOperandsINS_12SCEVUDivExprEENS_15InstructionCostERKNS_11SCEVOperandERKNS_19TargetTransformInfoENS7_14TargetCostKindERNS_15SmallVectorImplIS4_EEE16OperationIndicesvE5beginEv(ptr noundef nonnull align 8 dereferenceable(16) %3)
  %5 = call noundef i64 @_ZNK4llvm15SmallVectorBaseIjE4sizeEv(ptr noundef nonnull align 8 dereferenceable(16) %3)
  %6 = getelementptr inbounds %struct.OperationIndices.447, ptr %4, i64 %5
  ret ptr %6
}

; Function Attrs: mustprogress nounwind uwtable
define internal noundef ptr @_ZNK4llvm25SmallVectorTemplateCommonIZL22costAndCollectOperandsINS_12SCEVUDivExprEENS_15InstructionCostERKNS_11SCEVOperandERKNS_19TargetTransformInfoENS7_14TargetCostKindERNS_15SmallVectorImplIS4_EEE16OperationIndicesvE5beginEv(ptr noundef nonnull align 8 dereferenceable(16) %0) #1 align 2 {
  %2 = alloca ptr, align 8
  store ptr %0, ptr %2, align 8
  %3 = load ptr, ptr %2, align 8
  %4 = getelementptr inbounds nuw %"class.llvm::SmallVectorBase", ptr %3, i32 0, i32 0
  %5 = load ptr, ptr %4, align 8
  ret ptr %5
}

; Function Attrs: mustprogress nounwind uwtable
define internal void @_ZN4llvm23SmallVectorTemplateBaseIZL22costAndCollectOperandsINS_12SCEVUDivExprEENS_15InstructionCostERKNS_11SCEVOperandERKNS_19TargetTransformInfoENS7_14TargetCostKindERNS_15SmallVectorImplIS4_EEE16OperationIndicesLb1EE4growEm(ptr noundef nonnull align 8 dereferenceable(16) %0, i64 noundef %1) #1 align 2 {
  %3 = alloca ptr, align 8
  %4 = alloca i64, align 8
  store ptr %0, ptr %3, align 8
  store i64 %1, ptr %4, align 8
  %5 = load ptr, ptr %3, align 8
  %6 = load i64, ptr %4, align 8
  call void @_ZN4llvm25SmallVectorTemplateCommonIZL22costAndCollectOperandsINS_12SCEVUDivExprEENS_15InstructionCostERKNS_11SCEVOperandERKNS_19TargetTransformInfoENS7_14TargetCostKindERNS_15SmallVectorImplIS4_EEE16OperationIndicesvE8grow_podEmm(ptr noundef nonnull align 8 dereferenceable(16) %5, i64 noundef %6, i64 noundef 24)
  ret void
}

; Function Attrs: mustprogress nounwind uwtable
define internal noundef zeroext i1 @_ZNK4llvm25SmallVectorTemplateCommonIZL22costAndCollectOperandsINS_12SCEVUDivExprEENS_15InstructionCostERKNS_11SCEVOperandERKNS_19TargetTransformInfoENS7_14TargetCostKindERNS_15SmallVectorImplIS4_EEE16OperationIndicesvE20isReferenceToStorageEPKv(ptr noundef nonnull align 8 dereferenceable(16) %0, ptr noundef %1) #1 align 2 {
  %3 = alloca ptr, align 8
  %4 = alloca ptr, align 8
  store ptr %0, ptr %3, align 8
  store ptr %1, ptr %4, align 8
  %5 = load ptr, ptr %3, align 8
  %6 = load ptr, ptr %4, align 8
  %7 = call noundef ptr @_ZNK4llvm25SmallVectorTemplateCommonIZL22costAndCollectOperandsINS_12SCEVUDivExprEENS_15InstructionCostERKNS_11SCEVOperandERKNS_19TargetTransformInfoENS7_14TargetCostKindERNS_15SmallVectorImplIS4_EEE16OperationIndicesvE5beginEv(ptr noundef nonnull align 8 dereferenceable(16) %5)
  %8 = call noundef ptr @_ZNK4llvm25SmallVectorTemplateCommonIZL22costAndCollectOperandsINS_12SCEVUDivExprEENS_15InstructionCostERKNS_11SCEVOperandERKNS_19TargetTransformInfoENS7_14TargetCostKindERNS_15SmallVectorImplIS4_EEE16OperationIndicesvE3endEv(ptr noundef nonnull align 8 dereferenceable(16) %5)
  %9 = call noundef zeroext i1 @_ZNK4llvm25SmallVectorTemplateCommonIZL22costAndCollectOperandsINS_12SCEVUDivExprEENS_15InstructionCostERKNS_11SCEVOperandERKNS_19TargetTransformInfoENS7_14TargetCostKindERNS_15SmallVectorImplIS4_EEE16OperationIndicesvE18isReferenceToRangeEPKvSH_SH_(ptr noundef nonnull align 8 dereferenceable(16) %5, ptr noundef %6, ptr noundef %7, ptr noundef %8)
  ret i1 %9
}

; Function Attrs: mustprogress nounwind uwtable
define internal noundef ptr @_ZN4llvm25SmallVectorTemplateCommonIZL22costAndCollectOperandsINS_12SCEVUDivExprEENS_15InstructionCostERKNS_11SCEVOperandERKNS_19TargetTransformInfoENS7_14TargetCostKindERNS_15SmallVectorImplIS4_EEE16OperationIndicesvE5beginEv(ptr noundef nonnull align 8 dereferenceable(16) %0) #1 align 2 {
  %2 = alloca ptr, align 8
  store ptr %0, ptr %2, align 8
  %3 = load ptr, ptr %2, align 8
  %4 = getelementptr inbounds nuw %"class.llvm::SmallVectorBase", ptr %3, i32 0, i32 0
  %5 = load ptr, ptr %4, align 8
  ret ptr %5
}

; Function Attrs: mustprogress nounwind uwtable
define internal noundef ptr @_ZN4llvm25SmallVectorTemplateCommonIZL22costAndCollectOperandsINS_12SCEVUDivExprEENS_15InstructionCostERKNS_11SCEVOperandERKNS_19TargetTransformInfoENS7_14TargetCostKindERNS_15SmallVectorImplIS4_EEE16OperationIndicesvE32reserveForParamAndGetAddressImplINS_23SmallVectorTemplateBaseISE_Lb1EEEEEPKSE_PT_RSJ_m(ptr noundef %0, ptr noundef nonnull align 8 dereferenceable(24) %1, i64 noundef %2) #1 align 2 {
  %4 = alloca ptr, align 8
  %5 = alloca ptr, align 8
  %6 = alloca ptr, align 8
  %7 = alloca i64, align 8
  %8 = alloca i64, align 8
  %9 = alloca i8, align 1
  %10 = alloca i64, align 8
  store ptr %0, ptr %5, align 8
  store ptr %1, ptr %6, align 8
  store i64 %2, ptr %7, align 8
  %11 = load ptr, ptr %5, align 8
  %12 = call noundef i64 @_ZNK4llvm15SmallVectorBaseIjE4sizeEv(ptr noundef nonnull align 8 dereferenceable(16) %11)
  %13 = load i64, ptr %7, align 8
  %14 = add i64 %12, %13
  store i64 %14, ptr %8, align 8
  %15 = load i64, ptr %8, align 8
  %16 = load ptr, ptr %5, align 8
  %17 = call noundef i64 @_ZNK4llvm15SmallVectorBaseIjE8capacityEv(ptr noundef nonnull align 8 dereferenceable(16) %16)
  %18 = icmp ule i64 %15, %17
  br i1 %18, label %19, label %21

19:                                               ; preds = %3
  %20 = load ptr, ptr %6, align 8
  store ptr %20, ptr %4, align 8
  br label %47

21:                                               ; preds = %3
  store i8 0, ptr %9, align 1
  store i64 -1, ptr %10, align 8
  %22 = load ptr, ptr %5, align 8
  %23 = load ptr, ptr %6, align 8
  %24 = call noundef zeroext i1 @_ZNK4llvm25SmallVectorTemplateCommonIZL22costAndCollectOperandsINS_12SCEVUDivExprEENS_15InstructionCostERKNS_11SCEVOperandERKNS_19TargetTransformInfoENS7_14TargetCostKindERNS_15SmallVectorImplIS4_EEE16OperationIndicesvE20isReferenceToStorageEPKv(ptr noundef nonnull align 8 dereferenceable(16) %22, ptr noundef %23)
  br i1 %24, label %25, label %33

25:                                               ; preds = %21
  store i8 1, ptr %9, align 1
  %26 = load ptr, ptr %6, align 8
  %27 = load ptr, ptr %5, align 8
  %28 = call noundef ptr @_ZN4llvm25SmallVectorTemplateCommonIZL22costAndCollectOperandsINS_12SCEVUDivExprEENS_15InstructionCostERKNS_11SCEVOperandERKNS_19TargetTransformInfoENS7_14TargetCostKindERNS_15SmallVectorImplIS4_EEE16OperationIndicesvE5beginEv(ptr noundef nonnull align 8 dereferenceable(16) %27)
  %29 = ptrtoint ptr %26 to i64
  %30 = ptrtoint ptr %28 to i64
  %31 = sub i64 %29, %30
  %32 = sdiv exact i64 %31, 24
  store i64 %32, ptr %10, align 8
  br label %33

33:                                               ; preds = %25, %21
  %34 = load ptr, ptr %5, align 8
  %35 = load i64, ptr %8, align 8
  call void @_ZN4llvm23SmallVectorTemplateBaseIZL22costAndCollectOperandsINS_12SCEVUDivExprEENS_15InstructionCostERKNS_11SCEVOperandERKNS_19TargetTransformInfoENS7_14TargetCostKindERNS_15SmallVectorImplIS4_EEE16OperationIndicesLb1EE4growEm(ptr noundef nonnull align 8 dereferenceable(16) %34, i64 noundef %35)
  %36 = load i8, ptr %9, align 1
  %37 = trunc i8 %36 to i1
  br i1 %37, label %38, label %43

38:                                               ; preds = %33
  %39 = load ptr, ptr %5, align 8
  %40 = call noundef ptr @_ZN4llvm25SmallVectorTemplateCommonIZL22costAndCollectOperandsINS_12SCEVUDivExprEENS_15InstructionCostERKNS_11SCEVOperandERKNS_19TargetTransformInfoENS7_14TargetCostKindERNS_15SmallVectorImplIS4_EEE16OperationIndicesvE5beginEv(ptr noundef nonnull align 8 dereferenceable(16) %39)
  %41 = load i64, ptr %10, align 8
  %42 = getelementptr inbounds %struct.OperationIndices.447, ptr %40, i64 %41
  br label %45

43:                                               ; preds = %33
  %44 = load ptr, ptr %6, align 8
  br label %45

45:                                               ; preds = %43, %38
  %46 = phi ptr [ %42, %38 ], [ %44, %43 ]
  store ptr %46, ptr %4, align 8
  br label %47

47:                                               ; preds = %45, %19
  %48 = load ptr, ptr %4, align 8
  ret ptr %48
}

; Function Attrs: mustprogress nounwind uwtable
define internal noundef ptr @_ZN4llvm25SmallVectorTemplateCommonIZL22costAndCollectOperandsINS_12SCEVUDivExprEENS_15InstructionCostERKNS_11SCEVOperandERKNS_19TargetTransformInfoENS7_14TargetCostKindERNS_15SmallVectorImplIS4_EEE16OperationIndicesvE3endEv(ptr noundef nonnull align 8 dereferenceable(16) %0) #1 align 2 {
  %2 = alloca ptr, align 8
  store ptr %0, ptr %2, align 8
  %3 = load ptr, ptr %2, align 8
  %4 = call noundef ptr @_ZN4llvm25SmallVectorTemplateCommonIZL22costAndCollectOperandsINS_12SCEVUDivExprEENS_15InstructionCostERKNS_11SCEVOperandERKNS_19TargetTransformInfoENS7_14TargetCostKindERNS_15SmallVectorImplIS4_EEE16OperationIndicesvE5beginEv(ptr noundef nonnull align 8 dereferenceable(16) %3)
  %5 = call noundef i64 @_ZNK4llvm15SmallVectorBaseIjE4sizeEv(ptr noundef nonnull align 8 dereferenceable(16) %3)
  %6 = getelementptr inbounds %struct.OperationIndices.447, ptr %4, i64 %5
  ret ptr %6
}

; Function Attrs: mustprogress nounwind uwtable
define internal noundef ptr @_ZN4llvm23SmallVectorTemplateBaseIZL22costAndCollectOperandsINS_12SCEVUDivExprEENS_15InstructionCostERKNS_11SCEVOperandERKNS_19TargetTransformInfoENS7_14TargetCostKindERNS_15SmallVectorImplIS4_EEE16OperationIndicesLb1EE28reserveForParamAndGetAddressERKSE_m(ptr noundef nonnull align 8 dereferenceable(16) %0, ptr noundef nonnull align 8 dereferenceable(24) %1, i64 noundef %2) #1 align 2 {
  %4 = alloca ptr, align 8
  %5 = alloca ptr, align 8
  %6 = alloca i64, align 8
  store ptr %0, ptr %4, align 8
  store ptr %1, ptr %5, align 8
  store i64 %2, ptr %6, align 8
  %7 = load ptr, ptr %4, align 8
  %8 = load ptr, ptr %5, align 8
  %9 = load i64, ptr %6, align 8
  %10 = call noundef ptr @_ZN4llvm25SmallVectorTemplateCommonIZL22costAndCollectOperandsINS_12SCEVUDivExprEENS_15InstructionCostERKNS_11SCEVOperandERKNS_19TargetTransformInfoENS7_14TargetCostKindERNS_15SmallVectorImplIS4_EEE16OperationIndicesvE32reserveForParamAndGetAddressImplINS_23SmallVectorTemplateBaseISE_Lb1EEEEEPKSE_PT_RSJ_m(ptr noundef %7, ptr noundef nonnull align 8 dereferenceable(24) %8, i64 noundef %9)
  ret ptr %10
}

; Function Attrs: mustprogress nounwind uwtable
define internal void @_ZN4llvm23SmallVectorTemplateBaseIZL22costAndCollectOperandsINS_12SCEVUDivExprEENS_15InstructionCostERKNS_11SCEVOperandERKNS_19TargetTransformInfoENS7_14TargetCostKindERNS_15SmallVectorImplIS4_EEE16OperationIndicesLb1EE9push_backERKSE_(ptr noundef nonnull align 8 dereferenceable(16) %0, ptr noundef nonnull align 8 dereferenceable(24) %1) #1 align 2 {
  %3 = alloca ptr, align 8
  %4 = alloca ptr, align 8
  %5 = alloca ptr, align 8
  store ptr %0, ptr %3, align 8
  store ptr %1, ptr %4, align 8
  %6 = load ptr, ptr %3, align 8
  %7 = load ptr, ptr %4, align 8
  %8 = call noundef ptr @_ZN4llvm23SmallVectorTemplateBaseIZL22costAndCollectOperandsINS_12SCEVUDivExprEENS_15InstructionCostERKNS_11SCEVOperandERKNS_19TargetTransformInfoENS7_14TargetCostKindERNS_15SmallVectorImplIS4_EEE16OperationIndicesLb1EE28reserveForParamAndGetAddressERKSE_m(ptr noundef nonnull align 8 dereferenceable(16) %6, ptr noundef nonnull align 8 dereferenceable(24) %7, i64 noundef 1)
  store ptr %8, ptr %5, align 8
  %9 = call noundef ptr @_ZN4llvm25SmallVectorTemplateCommonIZL22costAndCollectOperandsINS_12SCEVUDivExprEENS_15InstructionCostERKNS_11SCEVOperandERKNS_19TargetTransformInfoENS7_14TargetCostKindERNS_15SmallVectorImplIS4_EEE16OperationIndicesvE3endEv(ptr noundef nonnull align 8 dereferenceable(16) %6)
  %10 = load ptr, ptr %5, align 8
  call void @llvm.memcpy.p0.p0.i64(ptr align 1 %9, ptr align 8 %10, i64 24, i1 false)
  %11 = call noundef i64 @_ZNK4llvm15SmallVectorBaseIjE4sizeEv(ptr noundef nonnull align 8 dereferenceable(16) %6)
  %12 = add i64 %11, 1
  call void @_ZN4llvm15SmallVectorBaseIjE8set_sizeEm(ptr noundef nonnull align 8 dereferenceable(16) %6, i64 noundef %12)
  ret void
}